; Function Attrs: mustprogress uwtable
define hidden void @_ZNK7datalog10table_base13row_interface5beginEv(ptr dead_on_unwind noalias writable writeonly sret(%"class.datalog::table_base::row_iterator") align 8 captures(none) initializes((0, 8)) %0, ptr noundef nonnull align 8 dereferenceable(16) %1) unnamed_addr #3 align 2 personality ptr @__gxx_personality_v0 {
_ZN7datalog10table_base12row_iteratorC2EPNS0_17row_iterator_coreE.exit:
  %2 = tail call noalias noundef ptr @_ZN6memory8allocateEm(i64 noundef 32)
  %3 = getelementptr inbounds nuw i8, ptr %2, i64 8
  store ptr getelementptr inbounds nuw inrange(-16, 48) (i8, ptr @_ZTVN7datalog10table_base13row_interface17fact_row_iteratorE, i64 16), ptr %2, align 8, !tbaa !3
  %4 = getelementptr inbounds nuw i8, ptr %2, i64 16
  store ptr %1, ptr %4, align 8, !tbaa !389
  %5 = getelementptr inbounds nuw i8, ptr %2, i64 24
  store i32 0, ptr %5, align 8, !tbaa !391
  store ptr %2, ptr %0, align 8, !tbaa !394
  store i32 1, ptr %3, align 8, !tbaa !397
  ret void
}